	.section	__TEXT,__text,regular,pure_instructions
	.build_version macos, 11, 0	sdk_version 11, 3
	.file	1 "/Users/Nepenthe/Program/GitHub/ProgrammingSamples/cpp/inspect/class" "vtable.cc"
	.globl	__Z3getP4Base                   ## -- Begin function _Z3getP4Base
	.p2align	4, 0x90
__Z3getP4Base:                          ## @_Z3getP4Base
Lfunc_begin0:
	.loc	1 15 0                          ## vtable.cc:15:0
	.cfi_startproc
## %bb.0:
	##DEBUG_VALUE: get:b <- $rdi
	##DEBUG_VALUE: get:b <- $rdi
	pushq	%rbp
	.cfi_def_cfa_offset 16
	.cfi_offset %rbp, -16
	movq	%rsp, %rbp
	.cfi_def_cfa_register %rbp
Ltmp0:
	.loc	1 15 30 prologue_end            ## vtable.cc:15:30
	movq	(%rdi), %rax
	callq	*16(%rax)
Ltmp1:
	##DEBUG_VALUE: get:b <- [DW_OP_LLVM_entry_value 1] $rdi
	.loc	1 15 20 is_stmt 0               ## vtable.cc:15:20
	popq	%rbp
	retq
Ltmp2:
Lfunc_end0:
	.cfi_endproc
                                        ## -- End function
	.globl	__Z3setP4Base                   ## -- Begin function _Z3setP4Base
	.p2align	4, 0x90
__Z3setP4Base:                          ## @_Z3setP4Base
Lfunc_begin1:
	.loc	1 16 0 is_stmt 1                ## vtable.cc:16:0
	.cfi_startproc
## %bb.0:
	##DEBUG_VALUE: set:b <- $rdi
	##DEBUG_VALUE: set:b <- $rdi
	pushq	%rbp
	.cfi_def_cfa_offset 16
	.cfi_offset %rbp, -16
	movq	%rsp, %rbp
	.cfi_def_cfa_register %rbp
Ltmp3:
	.loc	1 16 24 prologue_end            ## vtable.cc:16:24
	movq	(%rdi), %rax
	movl	$110, %esi
	callq	*24(%rax)
Ltmp4:
	##DEBUG_VALUE: set:b <- [DW_OP_LLVM_entry_value 1] $rdi
	.loc	1 16 34 is_stmt 0               ## vtable.cc:16:34
	popq	%rbp
	retq
Ltmp5:
Lfunc_end1:
	.cfi_endproc
                                        ## -- End function
	.globl	_main                           ## -- Begin function main
	.p2align	4, 0x90
_main:                                  ## @main
Lfunc_begin2:
	.loc	1 19 0 is_stmt 1                ## vtable.cc:19:0
	.cfi_startproc
	.cfi_personality 155, ___gxx_personality_v0
	.cfi_lsda 16, Lexception0
## %bb.0:
	pushq	%rbp
	.cfi_def_cfa_offset 16
	.cfi_offset %rbp, -16
	movq	%rsp, %rbp
	.cfi_def_cfa_register %rbp
	pushq	%rbx
	subq	$72, %rsp
	.cfi_offset %rbx, -24
	leaq	-72(%rbp), %rbx
Ltmp24:
	.loc	1 20 7 prologue_end             ## vtable.cc:20:7
	movq	%rbx, %rdi
	movl	$11, %esi
	callq	__ZN4BaseC1Ei
Ltmp25:
Ltmp6:
	.loc	1 21 2                          ## vtable.cc:21:2
	movq	%rbx, %rdi
	callq	__Z3getP4Base
Ltmp26:
Ltmp7:
## %bb.1:
Ltmp9:
	.loc	1 0 2 is_stmt 0                 ## vtable.cc:0:2
	leaq	-56(%rbp), %rdi
	.loc	1 23 7 is_stmt 1                ## vtable.cc:23:7
	movl	$12, %esi
	callq	__ZN4BaseC1Ei
Ltmp27:
Ltmp10:
## %bb.2:
Ltmp12:
	##DEBUG_VALUE: main:pb <- [DW_OP_LLVM_fragment 0 64] 17
	##DEBUG_VALUE: main:pb <- [DW_OP_LLVM_fragment 64 64] 0
	.loc	1 0 7 is_stmt 0                 ## vtable.cc:0:7
	leaq	-24(%rbp), %rdi
	.loc	1 26 10 is_stmt 1               ## vtable.cc:26:10
	movl	$21, %esi
	callq	__ZN7DerivedC1Ei
Ltmp28:
Ltmp13:
## %bb.3:
	##DEBUG_VALUE: main:pb <- [DW_OP_LLVM_fragment 64 64] 0
	##DEBUG_VALUE: main:pb <- [DW_OP_LLVM_fragment 0 64] 17
Ltmp15:
	.loc	1 0 10 is_stmt 0                ## vtable.cc:0:10
	leaq	-24(%rbp), %rdi
	.loc	1 27 2 is_stmt 1                ## vtable.cc:27:2
	callq	__Z3getP4Base
Ltmp29:
Ltmp16:
## %bb.4:
	##DEBUG_VALUE: main:pb <- [DW_OP_LLVM_fragment 64 64] 0
	##DEBUG_VALUE: main:pb <- [DW_OP_LLVM_fragment 0 64] 17
Ltmp18:
	.loc	1 0 2 is_stmt 0                 ## vtable.cc:0:2
	leaq	-40(%rbp), %rdi
	.loc	1 29 10 is_stmt 1               ## vtable.cc:29:10
	movl	$22, %esi
	callq	__ZN7DerivedC1Ei
Ltmp30:
Ltmp19:
## %bb.5:
	##DEBUG_VALUE: main:pb <- [DW_OP_LLVM_fragment 64 64] 0
	##DEBUG_VALUE: main:pb <- [DW_OP_LLVM_fragment 0 64] 17
Ltmp21:
	##DEBUG_VALUE: main:pd <- [DW_OP_LLVM_fragment 0 64] 17
	##DEBUG_VALUE: main:pd <- [DW_OP_LLVM_fragment 64 64] 0
	.loc	1 0 10 is_stmt 0                ## vtable.cc:0:10
	leaq	-24(%rbp), %rdi
	.loc	1 33 2 is_stmt 1                ## vtable.cc:33:2
	callq	__Z3setP4Base
Ltmp31:
Ltmp22:
## %bb.6:
	##DEBUG_VALUE: main:pd <- [DW_OP_LLVM_fragment 64 64] 0
	##DEBUG_VALUE: main:pd <- [DW_OP_LLVM_fragment 0 64] 17
	##DEBUG_VALUE: main:pb <- [DW_OP_LLVM_fragment 64 64] 0
	##DEBUG_VALUE: main:pb <- [DW_OP_LLVM_fragment 0 64] 17
	.loc	1 0 2 is_stmt 0                 ## vtable.cc:0:2
	leaq	-40(%rbp), %rdi
	.loc	1 36 1 is_stmt 1                ## vtable.cc:36:1
	callq	__ZN7DerivedD1Ev
Ltmp32:
	.loc	1 0 1 is_stmt 0                 ## vtable.cc:0:1
	leaq	-24(%rbp), %rdi
	.loc	1 36 1                          ## vtable.cc:36:1
	callq	__ZN7DerivedD1Ev
Ltmp33:
	.loc	1 0 1                           ## vtable.cc:0:1
	leaq	-56(%rbp), %rdi
	.loc	1 36 1                          ## vtable.cc:36:1
	callq	__ZN4BaseD1Ev
Ltmp34:
	.loc	1 0 1                           ## vtable.cc:0:1
	leaq	-72(%rbp), %rdi
	.loc	1 36 1                          ## vtable.cc:36:1
	callq	__ZN4BaseD1Ev
Ltmp35:
	xorl	%eax, %eax
	addq	$72, %rsp
	popq	%rbx
	popq	%rbp
	retq
Ltmp36:
LBB2_7:
	##DEBUG_VALUE: main:pd <- [DW_OP_LLVM_fragment 64 64] 0
	##DEBUG_VALUE: main:pd <- [DW_OP_LLVM_fragment 0 64] 17
	##DEBUG_VALUE: main:pb <- [DW_OP_LLVM_fragment 64 64] 0
	##DEBUG_VALUE: main:pb <- [DW_OP_LLVM_fragment 0 64] 17
Ltmp23:
	.loc	1 0 1                           ## vtable.cc:0:1
	movq	%rax, %rbx
	leaq	-40(%rbp), %rdi
	.loc	1 36 1                          ## vtable.cc:36:1
	callq	__ZN7DerivedD1Ev
Ltmp37:
	.loc	1 0 1                           ## vtable.cc:0:1
	jmp	LBB2_11
Ltmp38:
LBB2_8:
	##DEBUG_VALUE: main:pb <- [DW_OP_LLVM_fragment 64 64] 0
	##DEBUG_VALUE: main:pb <- [DW_OP_LLVM_fragment 0 64] 17
Ltmp20:
	jmp	LBB2_10
Ltmp39:
LBB2_9:
	##DEBUG_VALUE: main:pb <- [DW_OP_LLVM_fragment 64 64] 0
	##DEBUG_VALUE: main:pb <- [DW_OP_LLVM_fragment 0 64] 17
Ltmp17:
LBB2_10:
	##DEBUG_VALUE: main:pb <- [DW_OP_LLVM_fragment 64 64] 0
	##DEBUG_VALUE: main:pb <- [DW_OP_LLVM_fragment 0 64] 17
	movq	%rax, %rbx
Ltmp40:
LBB2_11:
	##DEBUG_VALUE: main:pb <- [DW_OP_LLVM_fragment 64 64] 0
	##DEBUG_VALUE: main:pb <- [DW_OP_LLVM_fragment 0 64] 17
	leaq	-24(%rbp), %rdi
	.loc	1 36 1                          ## vtable.cc:36:1
	callq	__ZN7DerivedD1Ev
Ltmp41:
	.loc	1 0 1                           ## vtable.cc:0:1
	jmp	LBB2_13
Ltmp42:
LBB2_12:
	##DEBUG_VALUE: main:pb <- [DW_OP_LLVM_fragment 64 64] 0
	##DEBUG_VALUE: main:pb <- [DW_OP_LLVM_fragment 0 64] 17
Ltmp14:
	movq	%rax, %rbx
Ltmp43:
LBB2_13:
	##DEBUG_VALUE: main:pb <- [DW_OP_LLVM_fragment 64 64] 0
	##DEBUG_VALUE: main:pb <- [DW_OP_LLVM_fragment 0 64] 17
	leaq	-56(%rbp), %rdi
	.loc	1 36 1                          ## vtable.cc:36:1
	callq	__ZN4BaseD1Ev
Ltmp44:
	.loc	1 0 1                           ## vtable.cc:0:1
	jmp	LBB2_17
Ltmp45:
LBB2_14:
Ltmp11:
	jmp	LBB2_16
LBB2_15:
Ltmp8:
LBB2_16:
	movq	%rax, %rbx
LBB2_17:
	leaq	-72(%rbp), %rdi
	.loc	1 36 1                          ## vtable.cc:36:1
	callq	__ZN4BaseD1Ev
Ltmp46:
	.loc	1 0 1                           ## vtable.cc:0:1
	movq	%rbx, %rdi
	callq	__Unwind_Resume
Ltmp47:
	ud2
Ltmp48:
Lfunc_end2:
	.cfi_endproc
	.section	__TEXT,__gcc_except_tab
	.p2align	2
GCC_except_table2:
Lexception0:
	.byte	255                             ## @LPStart Encoding = omit
	.byte	255                             ## @TType Encoding = omit
	.byte	1                               ## Call site Encoding = uleb128
	.uleb128 Lcst_end0-Lcst_begin0
Lcst_begin0:
	.uleb128 Lfunc_begin2-Lfunc_begin2      ## >> Call Site 1 <<
	.uleb128 Ltmp6-Lfunc_begin2             ##   Call between Lfunc_begin2 and Ltmp6
	.byte	0                               ##     has no landing pad
	.byte	0                               ##   On action: cleanup
	.uleb128 Ltmp6-Lfunc_begin2             ## >> Call Site 2 <<
	.uleb128 Ltmp7-Ltmp6                    ##   Call between Ltmp6 and Ltmp7
	.uleb128 Ltmp8-Lfunc_begin2             ##     jumps to Ltmp8
	.byte	0                               ##   On action: cleanup
	.uleb128 Ltmp9-Lfunc_begin2             ## >> Call Site 3 <<
	.uleb128 Ltmp10-Ltmp9                   ##   Call between Ltmp9 and Ltmp10
	.uleb128 Ltmp11-Lfunc_begin2            ##     jumps to Ltmp11
	.byte	0                               ##   On action: cleanup
	.uleb128 Ltmp12-Lfunc_begin2            ## >> Call Site 4 <<
	.uleb128 Ltmp13-Ltmp12                  ##   Call between Ltmp12 and Ltmp13
	.uleb128 Ltmp14-Lfunc_begin2            ##     jumps to Ltmp14
	.byte	0                               ##   On action: cleanup
	.uleb128 Ltmp15-Lfunc_begin2            ## >> Call Site 5 <<
	.uleb128 Ltmp16-Ltmp15                  ##   Call between Ltmp15 and Ltmp16
	.uleb128 Ltmp17-Lfunc_begin2            ##     jumps to Ltmp17
	.byte	0                               ##   On action: cleanup
	.uleb128 Ltmp18-Lfunc_begin2            ## >> Call Site 6 <<
	.uleb128 Ltmp19-Ltmp18                  ##   Call between Ltmp18 and Ltmp19
	.uleb128 Ltmp20-Lfunc_begin2            ##     jumps to Ltmp20
	.byte	0                               ##   On action: cleanup
	.uleb128 Ltmp21-Lfunc_begin2            ## >> Call Site 7 <<
	.uleb128 Ltmp22-Ltmp21                  ##   Call between Ltmp21 and Ltmp22
	.uleb128 Ltmp23-Lfunc_begin2            ##     jumps to Ltmp23
	.byte	0                               ##   On action: cleanup
	.uleb128 Ltmp22-Lfunc_begin2            ## >> Call Site 8 <<
	.uleb128 Lfunc_end2-Ltmp22              ##   Call between Ltmp22 and Lfunc_end2
	.byte	0                               ##     has no landing pad
	.byte	0                               ##   On action: cleanup
Lcst_end0:
	.p2align	2
                                        ## -- End function
	.section	__TEXT,__text,regular,pure_instructions
	.globl	__ZN4BaseC1Ei                   ## -- Begin function _ZN4BaseC1Ei
	.weak_def_can_be_hidden	__ZN4BaseC1Ei
	.p2align	4, 0x90
__ZN4BaseC1Ei:                          ## @_ZN4BaseC1Ei
Lfunc_begin3:
	.loc	1 2 0 is_stmt 1                 ## vtable.cc:2:0
	.cfi_startproc
## %bb.0:
	##DEBUG_VALUE: Base:this <- $rdi
	##DEBUG_VALUE: Base:this <- $rdi
	##DEBUG_VALUE: Base:n_arg <- $esi
	##DEBUG_VALUE: Base:n_arg <- $esi
	##DEBUG_VALUE: Base:n_arg <- $esi
	##DEBUG_VALUE: Base:this <- $rdi
	pushq	%rbp
	.cfi_def_cfa_offset 16
	.cfi_offset %rbp, -16
	movq	%rsp, %rbp
	.cfi_def_cfa_register %rbp
Ltmp49:
	.loc	1 2 29 prologue_end             ## vtable.cc:2:29
	callq	__ZN4BaseC2Ei
Ltmp50:
	##DEBUG_VALUE: Base:this <- [DW_OP_LLVM_entry_value 1] $rdi
	##DEBUG_VALUE: Base:n_arg <- [DW_OP_LLVM_entry_value 1] $esi
	.loc	1 2 30 is_stmt 0                ## vtable.cc:2:30
	popq	%rbp
	retq
Ltmp51:
Lfunc_end3:
	.cfi_endproc
                                        ## -- End function
	.globl	__ZN7DerivedC1Ei                ## -- Begin function _ZN7DerivedC1Ei
	.weak_def_can_be_hidden	__ZN7DerivedC1Ei
	.p2align	4, 0x90
__ZN7DerivedC1Ei:                       ## @_ZN7DerivedC1Ei
Lfunc_begin4:
	.loc	1 11 0 is_stmt 1                ## vtable.cc:11:0
	.cfi_startproc
## %bb.0:
	##DEBUG_VALUE: Derived:this <- $rdi
	##DEBUG_VALUE: Derived:this <- $rdi
	##DEBUG_VALUE: Derived:n_arg <- $esi
	##DEBUG_VALUE: Derived:n_arg <- $esi
	##DEBUG_VALUE: Derived:n_arg <- $esi
	##DEBUG_VALUE: Derived:this <- $rdi
	pushq	%rbp
	.cfi_def_cfa_offset 16
	.cfi_offset %rbp, -16
	movq	%rsp, %rbp
	.cfi_def_cfa_register %rbp
Ltmp52:
	.loc	1 11 35 prologue_end            ## vtable.cc:11:35
	callq	__ZN7DerivedC2Ei
Ltmp53:
	##DEBUG_VALUE: Derived:this <- [DW_OP_LLVM_entry_value 1] $rdi
	##DEBUG_VALUE: Derived:n_arg <- [DW_OP_LLVM_entry_value 1] $esi
	.loc	1 11 36 is_stmt 0               ## vtable.cc:11:36
	popq	%rbp
	retq
Ltmp54:
Lfunc_end4:
	.cfi_endproc
                                        ## -- End function
	.globl	__ZN7DerivedD1Ev                ## -- Begin function _ZN7DerivedD1Ev
	.weak_def_can_be_hidden	__ZN7DerivedD1Ev
	.p2align	4, 0x90
__ZN7DerivedD1Ev:                       ## @_ZN7DerivedD1Ev
Lfunc_begin5:
	.loc	1 10 0 is_stmt 1                ## vtable.cc:10:0
	.cfi_startproc
## %bb.0:
	##DEBUG_VALUE: ~Derived:this <- $rdi
	##DEBUG_VALUE: ~Derived:this <- $rdi
	##DEBUG_VALUE: ~Derived:this <- $rdi
	pushq	%rbp
	.cfi_def_cfa_offset 16
	.cfi_offset %rbp, -16
	movq	%rsp, %rbp
	.cfi_def_cfa_register %rbp
Ltmp55:
	.loc	1 10 8 prologue_end             ## vtable.cc:10:8
	callq	__ZN7DerivedD2Ev
Ltmp56:
	##DEBUG_VALUE: ~Derived:this <- [DW_OP_LLVM_entry_value 1] $rdi
	popq	%rbp
	retq
Ltmp57:
Lfunc_end5:
	.cfi_endproc
                                        ## -- End function
	.globl	__ZN4BaseD1Ev                   ## -- Begin function _ZN4BaseD1Ev
	.weak_def_can_be_hidden	__ZN4BaseD1Ev
	.p2align	4, 0x90
__ZN4BaseD1Ev:                          ## @_ZN4BaseD1Ev
Lfunc_begin6:
	.loc	1 3 0                           ## vtable.cc:3:0
	.cfi_startproc
## %bb.0:
	##DEBUG_VALUE: ~Base:this <- $rdi
	##DEBUG_VALUE: ~Base:this <- $rdi
	##DEBUG_VALUE: ~Base:this <- $rdi
	pushq	%rbp
	.cfi_def_cfa_offset 16
	.cfi_offset %rbp, -16
	movq	%rsp, %rbp
	.cfi_def_cfa_register %rbp
Ltmp58:
	.loc	1 3 26 prologue_end             ## vtable.cc:3:26
	callq	__ZN4BaseD2Ev
Ltmp59:
	##DEBUG_VALUE: ~Base:this <- [DW_OP_LLVM_entry_value 1] $rdi
	popq	%rbp
	retq
Ltmp60:
Lfunc_end6:
	.cfi_endproc
                                        ## -- End function
	.globl	__ZN4BaseC2Ei                   ## -- Begin function _ZN4BaseC2Ei
	.weak_def_can_be_hidden	__ZN4BaseC2Ei
	.p2align	4, 0x90
__ZN4BaseC2Ei:                          ## @_ZN4BaseC2Ei
Lfunc_begin7:
	.loc	1 2 0                           ## vtable.cc:2:0
	.cfi_startproc
## %bb.0:
	##DEBUG_VALUE: Base:this <- $rdi
	##DEBUG_VALUE: Base:this <- $rdi
	##DEBUG_VALUE: Base:n_arg <- $esi
	##DEBUG_VALUE: Base:n_arg <- $esi
	pushq	%rbp
	.cfi_def_cfa_offset 16
	.cfi_offset %rbp, -16
	movq	%rsp, %rbp
	.cfi_def_cfa_register %rbp
Ltmp61:
	.loc	1 2 29 prologue_end             ## vtable.cc:2:29
	movq	__ZTV4Base@GOTPCREL(%rip), %rax
	addq	$16, %rax
	movq	%rax, (%rdi)
	.loc	1 2 20 is_stmt 0                ## vtable.cc:2:20
	movl	%esi, 8(%rdi)
	.loc	1 2 30                          ## vtable.cc:2:30
	popq	%rbp
	retq
Ltmp62:
Lfunc_end7:
	.cfi_endproc
                                        ## -- End function
	.globl	__ZN4BaseD0Ev                   ## -- Begin function _ZN4BaseD0Ev
	.weak_def_can_be_hidden	__ZN4BaseD0Ev
	.p2align	4, 0x90
__ZN4BaseD0Ev:                          ## @_ZN4BaseD0Ev
Lfunc_begin8:
	.loc	1 3 0 is_stmt 1                 ## vtable.cc:3:0
	.cfi_startproc
## %bb.0:
	##DEBUG_VALUE: ~Base:this <- $rdi
	pushq	%rbp
	.cfi_def_cfa_offset 16
	.cfi_offset %rbp, -16
	movq	%rsp, %rbp
	.cfi_def_cfa_register %rbp
	pushq	%rbx
	pushq	%rax
	.cfi_offset %rbx, -24
	movq	%rdi, %rbx
Ltmp63:
	##DEBUG_VALUE: ~Base:this <- $rbx
	.loc	1 3 26 prologue_end             ## vtable.cc:3:26
	callq	__ZN4BaseD1Ev
Ltmp64:
	movq	%rbx, %rdi
	callq	__ZdlPv
Ltmp65:
	addq	$8, %rsp
	popq	%rbx
Ltmp66:
	##DEBUG_VALUE: ~Base:this <- [DW_OP_LLVM_entry_value 1] $rdi
	popq	%rbp
	retq
Ltmp67:
Lfunc_end8:
	.cfi_endproc
                                        ## -- End function
	.globl	__ZN4Base3getEv                 ## -- Begin function _ZN4Base3getEv
	.weak_def_can_be_hidden	__ZN4Base3getEv
	.p2align	4, 0x90
__ZN4Base3getEv:                        ## @_ZN4Base3getEv
Lfunc_begin9:
	.loc	1 5 0                           ## vtable.cc:5:0
	.cfi_startproc
## %bb.0:
	##DEBUG_VALUE: get:this <- $rdi
	##DEBUG_VALUE: get:this <- $rdi
	pushq	%rbp
	.cfi_def_cfa_offset 16
	.cfi_offset %rbp, -16
	movq	%rsp, %rbp
	.cfi_def_cfa_register %rbp
Ltmp68:
	.loc	1 5 29 prologue_end             ## vtable.cc:5:29
	movl	8(%rdi), %eax
	.loc	1 5 22 is_stmt 0                ## vtable.cc:5:22
	popq	%rbp
	retq
Ltmp69:
Lfunc_end9:
	.cfi_endproc
                                        ## -- End function
	.globl	__ZN4Base3setEi                 ## -- Begin function _ZN4Base3setEi
	.weak_def_can_be_hidden	__ZN4Base3setEi
	.p2align	4, 0x90
__ZN4Base3setEi:                        ## @_ZN4Base3setEi
Lfunc_begin10:
	.loc	1 6 0 is_stmt 1                 ## vtable.cc:6:0
	.cfi_startproc
## %bb.0:
	##DEBUG_VALUE: set:this <- $rdi
	##DEBUG_VALUE: set:this <- $rdi
	##DEBUG_VALUE: set:n_arg <- $esi
	##DEBUG_VALUE: set:n_arg <- $esi
	pushq	%rbp
	.cfi_def_cfa_offset 16
	.cfi_offset %rbp, -16
	movq	%rsp, %rbp
	.cfi_def_cfa_register %rbp
Ltmp70:
	.loc	1 6 34 prologue_end             ## vtable.cc:6:34
	movl	%esi, 8(%rdi)
	.loc	1 6 43 is_stmt 0                ## vtable.cc:6:43
	popq	%rbp
	retq
Ltmp71:
Lfunc_end10:
	.cfi_endproc
                                        ## -- End function
	.globl	__ZN7DerivedC2Ei                ## -- Begin function _ZN7DerivedC2Ei
	.weak_def_can_be_hidden	__ZN7DerivedC2Ei
	.p2align	4, 0x90
__ZN7DerivedC2Ei:                       ## @_ZN7DerivedC2Ei
Lfunc_begin11:
	.loc	1 11 0 is_stmt 1                ## vtable.cc:11:0
	.cfi_startproc
## %bb.0:
	##DEBUG_VALUE: Derived:this <- $rdi
	##DEBUG_VALUE: Derived:n_arg <- $esi
	pushq	%rbp
	.cfi_def_cfa_offset 16
	.cfi_offset %rbp, -16
	movq	%rsp, %rbp
	.cfi_def_cfa_register %rbp
	pushq	%rbx
	pushq	%rax
	.cfi_offset %rbx, -24
	movq	%rdi, %rbx
	##DEBUG_VALUE: Derived:n_arg <- $esi
Ltmp72:
	##DEBUG_VALUE: Derived:this <- $rbx
	##DEBUG_VALUE: Derived:n_arg <- $esi
	.loc	1 11 23 prologue_end            ## vtable.cc:11:23
	callq	__ZN4BaseC2Ei
Ltmp73:
	##DEBUG_VALUE: Derived:n_arg <- [DW_OP_LLVM_entry_value 1] $esi
	.loc	1 11 35 is_stmt 0               ## vtable.cc:11:35
	movq	__ZTV7Derived@GOTPCREL(%rip), %rax
	addq	$16, %rax
	movq	%rax, (%rbx)
	.loc	1 11 36                         ## vtable.cc:11:36
	addq	$8, %rsp
	popq	%rbx
Ltmp74:
	popq	%rbp
	retq
Ltmp75:
Lfunc_end11:
	.cfi_endproc
                                        ## -- End function
	.globl	__ZN7DerivedD0Ev                ## -- Begin function _ZN7DerivedD0Ev
	.weak_def_can_be_hidden	__ZN7DerivedD0Ev
	.p2align	4, 0x90
__ZN7DerivedD0Ev:                       ## @_ZN7DerivedD0Ev
Lfunc_begin12:
	.loc	1 10 0 is_stmt 1                ## vtable.cc:10:0
	.cfi_startproc
## %bb.0:
	##DEBUG_VALUE: ~Derived:this <- $rdi
	pushq	%rbp
	.cfi_def_cfa_offset 16
	.cfi_offset %rbp, -16
	movq	%rsp, %rbp
	.cfi_def_cfa_register %rbp
	pushq	%rbx
	pushq	%rax
	.cfi_offset %rbx, -24
	movq	%rdi, %rbx
Ltmp76:
	##DEBUG_VALUE: ~Derived:this <- $rbx
	.loc	1 10 8 prologue_end             ## vtable.cc:10:8
	callq	__ZN7DerivedD1Ev
Ltmp77:
	movq	%rbx, %rdi
	callq	__ZdlPv
Ltmp78:
	addq	$8, %rsp
	popq	%rbx
Ltmp79:
	##DEBUG_VALUE: ~Derived:this <- [DW_OP_LLVM_entry_value 1] $rdi
	popq	%rbp
	retq
Ltmp80:
Lfunc_end12:
	.cfi_endproc
                                        ## -- End function
	.globl	__ZN7Derived3getEv              ## -- Begin function _ZN7Derived3getEv
	.weak_def_can_be_hidden	__ZN7Derived3getEv
	.p2align	4, 0x90
__ZN7Derived3getEv:                     ## @_ZN7Derived3getEv
Lfunc_begin13:
	.loc	1 12 0                          ## vtable.cc:12:0
	.cfi_startproc
## %bb.0:
	##DEBUG_VALUE: get:this <- $rdi
	##DEBUG_VALUE: get:this <- $rdi
	pushq	%rbp
	.cfi_def_cfa_offset 16
	.cfi_offset %rbp, -16
	movq	%rsp, %rbp
	.cfi_def_cfa_register %rbp
Ltmp81:
	.loc	1 12 38 prologue_end            ## vtable.cc:12:38
	movl	8(%rdi), %eax
	.loc	1 12 40 is_stmt 0               ## vtable.cc:12:40
	addl	$10, %eax
	.loc	1 12 31                         ## vtable.cc:12:31
	popq	%rbp
	retq
Ltmp82:
Lfunc_end13:
	.cfi_endproc
                                        ## -- End function
	.globl	__ZN7DerivedD2Ev                ## -- Begin function _ZN7DerivedD2Ev
	.weak_def_can_be_hidden	__ZN7DerivedD2Ev
	.p2align	4, 0x90
__ZN7DerivedD2Ev:                       ## @_ZN7DerivedD2Ev
Lfunc_begin14:
	.loc	1 10 0 is_stmt 1                ## vtable.cc:10:0
	.cfi_startproc
## %bb.0:
	##DEBUG_VALUE: ~Derived:this <- $rdi
	##DEBUG_VALUE: ~Derived:this <- $rdi
	##DEBUG_VALUE: ~Derived:this <- $rdi
	pushq	%rbp
	.cfi_def_cfa_offset 16
	.cfi_offset %rbp, -16
	movq	%rsp, %rbp
	.cfi_def_cfa_register %rbp
Ltmp83:
	.loc	1 10 8 prologue_end             ## vtable.cc:10:8
	callq	__ZN4BaseD2Ev
Ltmp84:
	##DEBUG_VALUE: ~Derived:this <- [DW_OP_LLVM_entry_value 1] $rdi
	.loc	1 10 8 is_stmt 0                ## vtable.cc:10:8
	popq	%rbp
	retq
Ltmp85:
Lfunc_end14:
	.cfi_endproc
                                        ## -- End function
	.globl	__ZN4BaseD2Ev                   ## -- Begin function _ZN4BaseD2Ev
	.weak_def_can_be_hidden	__ZN4BaseD2Ev
	.p2align	4, 0x90
__ZN4BaseD2Ev:                          ## @_ZN4BaseD2Ev
Lfunc_begin15:
	.loc	1 3 0 is_stmt 1                 ## vtable.cc:3:0
	.cfi_startproc
## %bb.0:
	##DEBUG_VALUE: ~Base:this <- $rdi
	pushq	%rbp
	.cfi_def_cfa_offset 16
	.cfi_offset %rbp, -16
	movq	%rsp, %rbp
	.cfi_def_cfa_register %rbp
Ltmp86:
	.loc	1 3 26 prologue_end             ## vtable.cc:3:26
	popq	%rbp
	retq
Ltmp87:
Lfunc_end15:
	.cfi_endproc
                                        ## -- End function
	.section	__DATA,__const
	.globl	__ZTV4Base                      ## @_ZTV4Base
	.weak_def_can_be_hidden	__ZTV4Base
	.p2align	3
__ZTV4Base:
	.quad	0
	.quad	__ZTI4Base
	.quad	__ZN4BaseD1Ev
	.quad	__ZN4BaseD0Ev
	.quad	__ZN4Base3getEv
	.quad	__ZN4Base3setEi

	.section	__TEXT,__const
	.globl	__ZTS4Base                      ## @_ZTS4Base
	.weak_definition	__ZTS4Base
__ZTS4Base:
	.asciz	"4Base"

	.section	__DATA,__const
	.globl	__ZTI4Base                      ## @_ZTI4Base
	.weak_definition	__ZTI4Base
	.p2align	3
__ZTI4Base:
	.quad	__ZTVN10__cxxabiv117__class_type_infoE+16
	.quad	__ZTS4Base

	.globl	__ZTV7Derived                   ## @_ZTV7Derived
	.weak_def_can_be_hidden	__ZTV7Derived
	.p2align	3
__ZTV7Derived:
	.quad	0
	.quad	__ZTI7Derived
	.quad	__ZN7DerivedD1Ev
	.quad	__ZN7DerivedD0Ev
	.quad	__ZN7Derived3getEv
	.quad	__ZN4Base3setEi

	.section	__TEXT,__const
	.globl	__ZTS7Derived                   ## @_ZTS7Derived
	.weak_definition	__ZTS7Derived
__ZTS7Derived:
	.asciz	"7Derived"

	.section	__DATA,__const
	.globl	__ZTI7Derived                   ## @_ZTI7Derived
	.weak_definition	__ZTI7Derived
	.p2align	3
__ZTI7Derived:
	.quad	__ZTVN10__cxxabiv120__si_class_type_infoE+16
	.quad	__ZTS7Derived
	.quad	__ZTI4Base

	.file	2 "<stdin>"